; Function Attrs: mustprogress uwtable
define void @_ZN7httplib6Client9set_proxyERKNSt7__cxx1112basic_stringIcSt11char_traitsIcESaIcEEEi(ptr nocapture noundef nonnull readonly align 8 dereferenceable(9) %this, ptr noundef nonnull align 8 dereferenceable(32) %host, i32 noundef %port) local_unnamed_addr #5 align 2 {
entry:
  %0 = load ptr, ptr %this, align 8
  %proxy_host_.i = getelementptr inbounds i8, ptr %0, i64 688
  %call.i = tail call noundef nonnull align 8 dereferenceable(32) ptr @_ZNSt7__cxx1112basic_stringIcSt11char_traitsIcESaIcEEaSERKS4_(ptr noundef nonnull align 8 dereferenceable(32) %proxy_host_.i, ptr noundef nonnull align 8 dereferenceable(32) %host)
  %proxy_port_.i = getelementptr inbounds i8, ptr %0, i64 720
  store i32 %port, ptr %proxy_port_.i, align 8
  ret void
}